; Function Attrs: mustprogress uwtable
define internal noundef ptr @_ZL19spilhaus_destructorP8PJconstsi(ptr noundef %0, i32 noundef %1) #0 {
  %3 = icmp eq ptr %0, null
  br i1 %3, label %13, label %4

4:                                                ; preds = %2
  %5 = getelementptr inbounds nuw i8, ptr %0, i64 88
  %6 = load ptr, ptr %5, align 8, !tbaa !41
  %7 = icmp eq ptr %6, null
  br i1 %7, label %.sink.split, label %8

8:                                                ; preds = %4
  %9 = getelementptr inbounds nuw i8, ptr %6, i64 56
  %10 = load ptr, ptr %9, align 8, !tbaa !43
  %11 = tail call ptr @proj_destroy(ptr noundef %10)
  br label %.sink.split

.sink.split:                                      ; preds = %4, %8
  %12 = tail call noundef ptr @_Z21pj_default_destructorP8PJconstsi(ptr noundef nonnull %0, i32 noundef %1)
  br label %13

13:                                               ; preds = %.sink.split, %2
  %.0 = phi ptr [ null, %2 ], [ %12, %.sink.split ]
  ret ptr %.0
}